target datalayout = "e-m:e-p270:32:32-p271:32:32-p272:64:64-i64:64-i128:128-f80:128-n8:16:32:64-S128"
target triple = "x86_64-pc-linux-gnu"

@.str = private unnamed_addr constant [138 x i8] c"generated/home/dtcxzyw/WorkSpace/Projects/compilers/llvm-opt-benchmark/bench/libquic/libquic/boringssl/crypto/cipher/e_chacha20poly1305.c\00", align 1

; Function Attrs: nounwind uwtable
define internal i32 @aead_chacha20_poly1305_seal(ptr noundef %0, ptr noundef %1, ptr noundef %2, i64 noundef %3, ptr noundef %4, i64 noundef %5, ptr noundef %6, i64 noundef %7, ptr noundef %8, i64 noundef %9) #0 {
  %11 = alloca i32, align 4
  %12 = alloca ptr, align 8
  %13 = alloca ptr, align 8
  %14 = alloca ptr, align 8
  %15 = alloca i64, align 8
  %16 = alloca ptr, align 8
  %17 = alloca i64, align 8
  %18 = alloca ptr, align 8
  %19 = alloca i64, align 8
  %20 = alloca ptr, align 8
  %21 = alloca i64, align 8
  store ptr %0, ptr %12, align 8, !tbaa !6
  store ptr %1, ptr %13, align 8, !tbaa !11
  store ptr %2, ptr %14, align 8, !tbaa !22
  store i64 %3, ptr %15, align 8, !tbaa !13
  store ptr %4, ptr %16, align 8, !tbaa !11
  store i64 %5, ptr %17, align 8, !tbaa !13
  store ptr %6, ptr %18, align 8, !tbaa !11
  store i64 %7, ptr %19, align 8, !tbaa !13
  store ptr %8, ptr %20, align 8, !tbaa !11
  store i64 %9, ptr %21, align 8, !tbaa !13
  %22 = load i64, ptr %17, align 8, !tbaa !13
  %23 = icmp ne i64 %22, 12
  br i1 %23, label %24, label %25

24:                                               ; preds = %10
  call void @ERR_put_error(i32 noundef 30, i32 noundef 0, i32 noundef 121, ptr noundef @.str, i32 noundef 209)
  store i32 0, ptr %11, align 4
  br label %36

25:                                               ; preds = %10
  %26 = load ptr, ptr %12, align 8, !tbaa !6
  %27 = load ptr, ptr %13, align 8, !tbaa !11
  %28 = load ptr, ptr %14, align 8, !tbaa !22
  %29 = load i64, ptr %15, align 8, !tbaa !13
  %30 = load ptr, ptr %16, align 8, !tbaa !11
  %31 = load ptr, ptr %18, align 8, !tbaa !11
  %32 = load i64, ptr %19, align 8, !tbaa !13
  %33 = load ptr, ptr %20, align 8, !tbaa !11
  %34 = load i64, ptr %21, align 8, !tbaa !13
  %35 = call i32 @seal_impl(ptr noundef @poly1305_update, ptr noundef %26, ptr noundef %27, ptr noundef %28, i64 noundef %29, ptr noundef %30, ptr noundef %31, i64 noundef %32, ptr noundef %33, i64 noundef %34)
  store i32 %35, ptr %11, align 4
  br label %36

36:                                               ; preds = %25, %24
  %37 = load i32, ptr %11, align 4
  ret i32 %37
}